Certificate:
    Data:
        Version: 3 (0x2)
        Serial Number: 1 (0x1)
        Signature Algorithm: sha256WithRSAEncryption
        Issuer: C=FR, ST=Seine-Maritime, O=M2_SSI, OU=TP_Crypto, CN=Dambe Lamboni
        Validity
            Not Before: Dec  8 17:50:13 2024 GMT
            Not After : Dec  8 17:50:13 2025 GMT
        Subject: C=FR, ST=Seine-Maritime, O=M2_SSI, CN=smime-client.m2ssi_tp4
        Subject Public Key Info:
            Public Key Algorithm: rsaEncryption
                Public-Key: (2048 bit)
                Modulus:
                    00:97:40:32:0a:aa:39:d1:d1:14:74:91:35:3d:3a:
                    f8:7e:7c:8b:0b:b2:31:8b:1b:c2:08:99:2a:c9:e7:
                    2f:64:66:b8:40:16:c6:79:f6:ca:49:bf:43:b1:4a:
                    1b:86:57:1a:1c:38:8a:04:d1:30:54:f8:2e:fa:8b:
                    83:ea:c8:48:30:e3:9b:0e:bb:b8:63:fd:e7:b8:73:
                    84:7c:72:30:7a:05:26:4d:0c:32:97:2b:9e:0a:dd:
                    30:d1:4b:9b:8b:07:7b:e9:a1:2c:ae:12:f6:21:9d:
                    ad:1b:0b:84:f5:4d:8e:f3:9f:45:dc:3a:d7:af:d1:
                    33:f1:b7:7e:d3:a9:ae:3f:96:af:a7:9b:df:b7:80:
                    05:79:68:1a:40:23:bc:ab:a4:33:ab:dc:84:fa:2b:
                    c7:3c:a2:df:b7:36:5b:89:8b:ec:98:32:67:63:93:
                    ff:87:2c:04:6c:a2:8e:44:e7:a7:95:4e:52:5c:05:
                    3a:ec:cf:ea:ab:18:07:0f:a2:8c:d8:57:c7:4a:1d:
                    5b:cc:3a:3e:36:8c:66:47:40:47:e0:31:88:7e:3e:
                    7f:4e:a0:f1:ab:46:f8:6e:28:cb:6d:b8:db:9f:07:
                    50:f3:38:ca:63:8f:71:af:07:2a:fe:54:8a:20:c3:
                    69:dc:39:0d:b6:e2:b8:e5:a0:d8:ec:1d:28:77:7a:
                    28:5b
                Exponent: 65537 (0x10001)
        X509v3 extensions:
            X509v3 Key Usage: 
                Digital Signature, Key Encipherment
            X509v3 Extended Key Usage: 
                E-mail Protection
            X509v3 Subject Key Identifier: 
                39:CA:01:58:20:A0:92:CE:60:D9:64:6F:5A:DE:9F:A1:43:C3:6E:EC
            X509v3 Authority Key Identifier: 
                E8:68:58:65:10:3C:9E:71:A0:67:DC:D9:0E:B0:10:7F:2F:FB:76:54
    Signature Algorithm: sha256WithRSAEncryption
    Signature Value:
        02:d6:a1:76:79:87:8c:80:88:16:4d:57:7f:85:b7:40:31:70:
        c4:c4:bf:39:a0:f3:f3:30:9c:5e:10:87:d1:1e:87:91:04:c9:
        a8:ec:da:2c:8e:32:97:86:82:60:69:15:1a:ad:3a:dd:4e:07:
        e3:1d:19:7a:72:18:00:ad:1a:80:19:8e:4a:e9:35:81:ab:26:
        58:f0:53:33:7a:29:ff:f7:ba:e8:7f:22:84:38:2e:75:91:c0:
        50:30:be:a9:53:31:25:ef:bc:a3:f7:eb:4f:ff:38:34:35:9a:
        4f:da:b3:cb:b6:d9:1c:60:b4:37:74:46:ed:9d:ed:45:26:15:
        67:38:c7:ef:64:00:63:a1:59:b7:aa:9f:a1:05:09:c5:32:75:
        40:f3:c2:2c:1b:48:a8:95:cc:31:eb:25:3a:cf:11:0a:af:ab:
        28:06:2e:1d:c1:1b:28:c2:5a:cd:42:9a:af:b1:e6:8c:7b:ba:
        c5:53:e5:39:77:d3:77:d9:07:22:7f:2f:fb:78:b2:44:9e:e3:
        42:f6:bb:8b:2e:90:b4:d1:f1:1b:2d:15:b7:29:27:ee:1f:0d:
        ac:1e:ec:5a:1a:c6:85:45:a1:c2:b5:f1:18:89:95:e2:47:bb:
        6c:2d:05:24:3c:d3:ab:b7:68:70:09:5b:1a:ea:c7:45:40:fc:
        03:94:b7:ae
-----BEGIN CERTIFICATE-----
MIIDmjCCAoKgAwIBAgIBATANBgkqhkiG9w0BAQsFADBjMQswCQYDVQQGEwJGUjEX
MBUGA1UECAwOU2VpbmUtTWFyaXRpbWUxDzANBgNVBAoMBk0yX1NTSTESMBAGA1UE
CwwJVFBfQ3J5cHRvMRYwFAYDVQQDDA1EYW1iZSBMYW1ib25pMB4XDTI0MTIwODE3
NTAxM1oXDTI1MTIwODE3NTAxM1owWDELMAkGA1UEBhMCRlIxFzAVBgNVBAgMDlNl
aW5lLU1hcml0aW1lMQ8wDQYDVQQKDAZNMl9TU0kxHzAdBgNVBAMMFnNtaW1lLWNs
aWVudC5tMnNzaV90cDQwggEiMA0GCSqGSIb3DQEBAQUAA4IBDwAwggEKAoIBAQCX
QDIKqjnR0RR0kTU9Ovh+fIsLsjGLG8IImSrJ5y9kZrhAFsZ59spJv0OxShuGVxoc
OIoE0TBU+C76i4PqyEgw45sOu7hj/ee4c4R8cjB6BSZNDDKXK54K3TDRS5uLB3vp
oSyuEvYhna0bC4T1TY7zn0XcOtev0TPxt37Tqa4/lq+nm9+3gAV5aBpAI7yrpDOr
3IT6K8c8ot+3NluJi+yYMmdjk/+HLARsoo5E56eVTlJcBTrsz+qrGAcPoozYV8dK
HVvMOj42jGZHQEfgMYh+Pn9OoPGrRvhuKMttuNufB1DzOMpjj3GvByr+VIogw2nc
OQ224rjloNjsHSh3eihbAgMBAAGjZDBiMAsGA1UdDwQEAwIFoDATBgNVHSUEDDAK
BggrBgEFBQcDBDAdBgNVHQ4EFgQUOcoBWCCgks5g2WRvWt6foUPDbuwwHwYDVR0j
BBgwFoAU6GhYZRA8nnGgZ9zZDrAQfy/7dlQwDQYJKoZIhvcNAQELBQADggEBAALW
oXZ5h4yAiBZNV3+Ft0AxcMTEvzmg8/MwnF4Qh9Eeh5EEyajs2iyOMpeGgmBpFRqt
Ot1OB+MdGXpyGACtGoAZjkrpNYGrJljwUzN6Kf/3uuh/IoQ4LnWRwFAwvqlTMSXv
vKP360//ODQ1mk/as8u22RxgtDd0Ru2d7UUmFWc4x+9kAGOhWbeqn6EFCcUydUDz
wiwbSKiVzDHrJTrPEQqvqygGLh3BGyjCWs1Cmq+x5ox7usVT5Tl303fZByJ/L/t4
skSe40L2u4sukLTR8RstFbcpJ+4fDawe7FoaxoVFocK18RiJleJHu2wtBSQ806u3
aHAJWxrqx0VA/AOUt64=
-----END CERTIFICATE-----
