Certificate:
    Data:
        Version: 3 (0x2)
        Serial Number: 2 (0x2)
        Signature Algorithm: sha256WithRSAEncryption
        Issuer: C=FR, ST=Seine-Maritime, O=M2_SSI, OU=TP_Crypto, CN=Dambe Lamboni
        Validity
            Not Before: Dec  8 17:50:28 2024 GMT
            Not After : Dec  8 17:50:28 2025 GMT
        Subject: C=FR, ST=Seine-Maritime, O=M2_SSI, CN=server.m2ssi_tp4
        Subject Public Key Info:
            Public Key Algorithm: rsaEncryption
                Public-Key: (2048 bit)
                Modulus:
                    00:c4:14:18:2a:07:d2:7f:fb:9e:63:67:e5:62:0f:
                    55:f9:50:8a:75:3e:e7:bc:42:b8:9b:1f:55:04:70:
                    69:6c:aa:f8:ca:a2:29:4a:ff:52:3b:ae:9d:1d:89:
                    9e:0e:f8:4a:4a:b4:56:7c:fe:58:36:d0:fa:a5:e3:
                    93:6b:8d:13:59:35:1f:78:47:74:4b:9a:12:ce:fe:
                    d1:a3:44:33:6b:81:dc:df:f4:cb:90:ad:7b:84:ba:
                    d0:f3:05:79:70:43:7a:bd:3a:e2:15:78:fe:bf:4e:
                    a5:dd:36:3c:7f:34:d5:2c:4b:e2:b8:9b:f3:0b:b7:
                    99:24:ac:6a:e0:22:df:7c:d0:14:05:0c:bc:2c:ea:
                    7a:5e:7d:54:81:23:37:c2:58:7a:78:3b:c5:57:13:
                    7b:6f:33:3d:9f:52:46:c2:1d:51:7a:dc:62:61:40:
                    72:9d:2b:3a:5a:09:58:c0:20:30:ab:50:cc:6d:d9:
                    a5:65:7c:97:bf:16:db:2a:b2:62:fc:ef:30:af:eb:
                    12:e5:17:8a:d5:fc:b9:44:5e:1f:2c:4c:9b:03:2f:
                    df:00:22:20:35:4c:71:b3:b2:f5:ee:29:7d:2e:59:
                    a5:58:7c:2a:6a:f7:78:f5:00:08:c0:3e:20:f6:ff:
                    f5:48:e2:1e:25:94:3c:58:b9:c4:5d:70:9a:2f:47:
                    a8:83
                Exponent: 65537 (0x10001)
        X509v3 extensions:
            X509v3 Key Usage: 
                Digital Signature, Key Encipherment
            X509v3 Extended Key Usage: 
                TLS Web Server Authentication
            X509v3 Subject Key Identifier: 
                C6:00:E0:36:01:3E:C3:93:AC:4A:76:4B:4D:2E:92:59:BE:E1:20:98
            X509v3 Authority Key Identifier: 
                E8:68:58:65:10:3C:9E:71:A0:67:DC:D9:0E:B0:10:7F:2F:FB:76:54
    Signature Algorithm: sha256WithRSAEncryption
    Signature Value:
        8b:42:cb:66:3d:38:a4:de:f3:0e:39:16:cb:5f:8c:ed:b9:d6:
        89:27:ca:ac:f7:f8:a0:7b:b7:ae:bc:8c:c5:fe:74:0f:24:bc:
        07:e7:b4:32:1e:f7:8a:56:a2:ce:f5:e3:56:1b:5e:20:93:c7:
        cf:08:b2:74:4c:73:1b:68:7b:3b:cd:4b:3f:ab:55:eb:af:a6:
        c6:3b:43:b9:5f:68:85:94:1f:f9:e4:d2:a7:56:d1:a5:60:77:
        c7:06:57:2d:f7:16:3e:42:72:c5:d6:3a:f0:ee:b2:af:12:90:
        7e:13:ff:db:45:a9:33:75:be:d2:eb:32:b2:00:95:28:93:15:
        2f:ec:04:66:ab:ce:38:d6:2b:4e:2c:78:0f:c6:fc:62:9b:a0:
        6e:5d:da:8d:29:c1:15:8a:b9:cd:b5:50:b7:d1:34:b1:2e:8d:
        87:e1:e5:15:6a:ee:b1:86:56:01:8d:95:6d:02:61:25:42:ff:
        8b:a8:4e:ec:2b:8f:ce:f2:4e:fb:64:2e:43:2c:1c:8a:7e:8f:
        18:40:09:28:b6:4c:f2:97:98:92:ec:5b:7d:62:7b:c7:5b:8b:
        e9:76:53:99:e8:35:60:3c:16:94:be:6c:f7:07:1c:c0:c4:2e:
        64:60:b2:cb:f7:f0:ff:a5:38:6f:66:95:7b:2d:07:84:bc:1d:
        03:e1:67:40
-----BEGIN CERTIFICATE-----
MIIDlDCCAnygAwIBAgIBAjANBgkqhkiG9w0BAQsFADBjMQswCQYDVQQGEwJGUjEX
MBUGA1UECAwOU2VpbmUtTWFyaXRpbWUxDzANBgNVBAoMBk0yX1NTSTESMBAGA1UE
CwwJVFBfQ3J5cHRvMRYwFAYDVQQDDA1EYW1iZSBMYW1ib25pMB4XDTI0MTIwODE3
NTAyOFoXDTI1MTIwODE3NTAyOFowUjELMAkGA1UEBhMCRlIxFzAVBgNVBAgMDlNl
aW5lLU1hcml0aW1lMQ8wDQYDVQQKDAZNMl9TU0kxGTAXBgNVBAMMEHNlcnZlci5t
MnNzaV90cDQwggEiMA0GCSqGSIb3DQEBAQUAA4IBDwAwggEKAoIBAQDEFBgqB9J/
+55jZ+ViD1X5UIp1Pue8QribH1UEcGlsqvjKoilK/1I7rp0diZ4O+EpKtFZ8/lg2
0Pql45NrjRNZNR94R3RLmhLO/tGjRDNrgdzf9MuQrXuEutDzBXlwQ3q9OuIVeP6/
TqXdNjx/NNUsS+K4m/MLt5kkrGrgIt980BQFDLws6npefVSBIzfCWHp4O8VXE3tv
Mz2fUkbCHVF63GJhQHKdKzpaCVjAIDCrUMxt2aVlfJe/FtsqsmL87zCv6xLlF4rV
/LlEXh8sTJsDL98AIiA1THGzsvXuKX0uWaVYfCpq93j1AAjAPiD2//VI4h4llDxY
ucRdcJovR6iDAgMBAAGjZDBiMAsGA1UdDwQEAwIFoDATBgNVHSUEDDAKBggrBgEF
BQcDATAdBgNVHQ4EFgQUxgDgNgE+w5OsSnZLTS6SWb7hIJgwHwYDVR0jBBgwFoAU
6GhYZRA8nnGgZ9zZDrAQfy/7dlQwDQYJKoZIhvcNAQELBQADggEBAItCy2Y9OKTe
8w45FstfjO251oknyqz3+KB7t668jMX+dA8kvAfntDIe94pWos7141YbXiCTx88I
snRMcxtoezvNSz+rVeuvpsY7Q7lfaIWUH/nk0qdW0aVgd8cGVy33Fj5CcsXWOvDu
sq8SkH4T/9tFqTN1vtLrMrIAlSiTFS/sBGarzjjWK04seA/G/GKboG5d2o0pwRWK
uc21ULfRNLEujYfh5RVq7rGGVgGNlW0CYSVC/4uoTuwrj87yTvtkLkMsHIp+jxhA
CSi2TPKXmJLsW31ie8dbi+l2U5noNWA8FpS+bPcHHMDELmRgssv38P+lOG9mlXst
B4S8HQPhZ0A=
-----END CERTIFICATE-----
