Certificate:
    Data:
        Version: 3 (0x2)
        Serial Number: 3 (0x3)
        Signature Algorithm: sha256WithRSAEncryption
        Issuer: C=FR, ST=Seine-Maritime, O=M2_SSI, OU=TP_Crypto, CN=Dambe Lamboni
        Validity
            Not Before: Dec  8 17:50:34 2024 GMT
            Not After : Dec  8 17:50:34 2025 GMT
        Subject: C=FR, ST=Seine-Maritime, O=M2_SSI, CN=ipsec-client.m2ssi_tp4
        Subject Public Key Info:
            Public Key Algorithm: rsaEncryption
                Public-Key: (2048 bit)
                Modulus:
                    00:a3:04:ec:af:e3:d1:09:a1:52:ed:a6:d6:90:6e:
                    56:06:98:63:ad:a3:1e:6f:ab:af:6e:97:e6:0d:e7:
                    b9:64:fb:e0:03:ec:4d:39:e8:79:77:30:2c:20:6c:
                    df:37:92:e8:48:a3:c6:8f:77:ae:bb:9b:b3:41:c2:
                    22:db:d3:84:5d:04:84:f3:d0:31:69:96:95:69:0e:
                    ff:60:85:bb:f7:2f:04:79:e6:16:7d:fd:95:9c:fe:
                    92:13:99:e5:c3:9c:3b:75:84:76:9f:8c:54:90:bb:
                    72:01:6c:70:24:c1:93:62:ec:26:5a:53:95:ae:5e:
                    e0:b5:0d:65:ed:05:d7:fe:64:1a:02:e9:fd:66:2c:
                    cf:57:71:87:4b:73:d3:9d:04:18:98:03:57:a3:38:
                    5e:f6:85:07:2c:b8:b4:03:0c:f8:6c:50:31:02:f5:
                    5d:d4:88:05:37:41:fc:5a:81:27:f5:1f:ee:95:1c:
                    b9:ed:74:2b:79:83:43:2d:29:77:78:42:07:ab:59:
                    dc:f7:e7:bf:11:80:5c:ed:b1:9b:80:09:f0:c4:31:
                    af:54:8b:75:70:eb:0b:77:e5:20:d0:72:dc:fe:a4:
                    42:bf:75:4f:4a:b5:67:dc:b8:49:41:20:cd:5f:7c:
                    75:92:4b:b7:db:60:d1:df:16:6b:6e:7c:cf:16:2d:
                    ed:f3
                Exponent: 65537 (0x10001)
        X509v3 extensions:
            X509v3 Key Usage: 
                Digital Signature, Key Encipherment
            X509v3 Extended Key Usage: 
                IPSec End System
            X509v3 Subject Key Identifier: 
                34:64:FE:C1:D0:0C:67:B1:08:69:9E:B3:A5:1C:3B:18:77:68:ED:AF
            X509v3 Authority Key Identifier: 
                E8:68:58:65:10:3C:9E:71:A0:67:DC:D9:0E:B0:10:7F:2F:FB:76:54
    Signature Algorithm: sha256WithRSAEncryption
    Signature Value:
        b5:13:dd:cf:7d:5c:dd:a9:75:0f:8e:e7:eb:1f:06:1c:78:b4:
        90:3c:1d:f0:a2:4e:77:83:d2:d5:3f:9e:b9:b2:bf:2e:e3:a4:
        dd:bb:4d:91:00:bf:4f:87:2a:97:51:c7:c2:85:38:b9:c7:9b:
        6a:32:6b:af:77:07:cb:e0:02:5b:c0:69:96:42:f6:ee:57:68:
        20:e7:30:96:bb:7e:bd:c4:ce:69:b3:05:2b:de:85:74:d9:53:
        d8:dd:20:95:3f:be:a3:2a:8a:0b:25:e0:74:e6:6b:7c:4b:74:
        b5:8e:cf:ff:ce:1b:06:4b:f1:e7:c8:8a:d7:aa:01:b0:32:30:
        93:34:6c:f8:3c:1b:b6:b1:27:8d:42:6e:1a:d5:b9:2c:9e:7a:
        ca:ea:c2:96:ef:6c:a6:61:c2:29:c1:3e:78:cd:2c:4e:33:2a:
        29:21:55:9a:7b:c1:cf:b0:49:64:76:44:58:63:91:8c:ca:3f:
        04:b4:a6:2f:66:46:c5:93:30:cf:74:56:4e:56:51:76:70:5f:
        79:9a:fb:4c:98:af:07:c2:85:1f:48:7c:c0:fa:5a:a6:da:b3:
        71:b3:ed:7b:00:4c:97:f9:22:6a:bf:d0:51:17:58:de:d6:65:
        7e:ba:61:b1:b4:da:b5:47:a6:5c:1e:fa:14:48:d5:d0:bc:f5:
        23:06:5e:34
-----BEGIN CERTIFICATE-----
MIIDmjCCAoKgAwIBAgIBAzANBgkqhkiG9w0BAQsFADBjMQswCQYDVQQGEwJGUjEX
MBUGA1UECAwOU2VpbmUtTWFyaXRpbWUxDzANBgNVBAoMBk0yX1NTSTESMBAGA1UE
CwwJVFBfQ3J5cHRvMRYwFAYDVQQDDA1EYW1iZSBMYW1ib25pMB4XDTI0MTIwODE3
NTAzNFoXDTI1MTIwODE3NTAzNFowWDELMAkGA1UEBhMCRlIxFzAVBgNVBAgMDlNl
aW5lLU1hcml0aW1lMQ8wDQYDVQQKDAZNMl9TU0kxHzAdBgNVBAMMFmlwc2VjLWNs
aWVudC5tMnNzaV90cDQwggEiMA0GCSqGSIb3DQEBAQUAA4IBDwAwggEKAoIBAQCj
BOyv49EJoVLtptaQblYGmGOtox5vq69ul+YN57lk++AD7E056Hl3MCwgbN83kuhI
o8aPd667m7NBwiLb04RdBITz0DFplpVpDv9ghbv3LwR55hZ9/ZWc/pITmeXDnDt1
hHafjFSQu3IBbHAkwZNi7CZaU5WuXuC1DWXtBdf+ZBoC6f1mLM9XcYdLc9OdBBiY
A1ejOF72hQcsuLQDDPhsUDEC9V3UiAU3QfxagSf1H+6VHLntdCt5g0MtKXd4Qger
Wdz3578RgFztsZuACfDEMa9Ui3Vw6wt35SDQctz+pEK/dU9KtWfcuElBIM1ffHWS
S7fbYNHfFmtufM8WLe3zAgMBAAGjZDBiMAsGA1UdDwQEAwIFoDATBgNVHSUEDDAK
BggrBgEFBQcDBTAdBgNVHQ4EFgQUNGT+wdAMZ7EIaZ6zpRw7GHdo7a8wHwYDVR0j
BBgwFoAU6GhYZRA8nnGgZ9zZDrAQfy/7dlQwDQYJKoZIhvcNAQELBQADggEBALUT
3c99XN2pdQ+O5+sfBhx4tJA8HfCiTneD0tU/nrmyvy7jpN27TZEAv0+HKpdRx8KF
OLnHm2oya693B8vgAlvAaZZC9u5XaCDnMJa7fr3EzmmzBSvehXTZU9jdIJU/vqMq
igsl4HTma3xLdLWOz//OGwZL8efIiteqAbAyMJM0bPg8G7axJ41CbhrVuSyeesrq
wpbvbKZhwinBPnjNLE4zKikhVZp7wc+wSWR2RFhjkYzKPwS0pi9mRsWTMM90Vk5W
UXZwX3ma+0yYrwfChR9IfMD6Wqbas3Gz7XsATJf5Imq/0FEXWN7WZX66YbG02rVH
plwe+hRI1dC89SMGXjQ=
-----END CERTIFICATE-----
