Certificate:
    Data:
        Version: 3 (0x2)
        Serial Number: 4 (0x4)
        Signature Algorithm: sha256WithRSAEncryption
        Issuer: C=FR, ST=Seine-Maritime, O=M2_SSI, OU=TP_Crypto, CN=Dambe Lamboni
        Validity
            Not Before: Dec  8 17:50:38 2024 GMT
            Not After : Dec  8 17:50:38 2025 GMT
        Subject: C=FR, ST=Seine-Maritime, O=M2_SSI, CN=openvpn-client.m2ssi_tp4
        Subject Public Key Info:
            Public Key Algorithm: rsaEncryption
                Public-Key: (2048 bit)
                Modulus:
                    00:de:e8:45:57:86:c8:3f:c5:90:34:2c:26:78:06:
                    f8:fc:60:21:38:99:b7:22:a0:8d:f8:0d:c7:65:90:
                    fd:18:bc:60:7d:57:88:1f:ce:07:bd:bb:a1:72:98:
                    68:21:bc:0c:c9:07:60:ed:14:30:de:d7:a5:64:a2:
                    6a:ab:1b:39:41:0a:2a:75:47:c3:82:ae:52:86:3f:
                    20:40:1d:e6:2e:9b:c7:cb:71:19:72:1c:d8:71:89:
                    18:b9:66:ac:d6:35:03:b3:56:4d:a1:87:82:27:4d:
                    f6:32:2e:26:d0:d0:70:2f:4d:65:24:37:13:04:a4:
                    1e:8a:86:1a:51:be:cf:15:b1:b4:ca:59:97:16:1f:
                    9d:4a:fe:d9:30:a9:bb:36:90:59:cb:52:72:28:36:
                    95:7c:87:63:3f:8c:e8:aa:f3:b4:65:32:41:37:17:
                    5d:5a:db:a4:5e:ac:5a:a0:68:c0:a6:db:1b:3d:cc:
                    9b:82:f0:10:5a:ac:d9:62:57:32:14:09:a6:f4:81:
                    d9:42:bd:90:ff:fb:d3:40:1b:76:f1:ba:ed:a6:7f:
                    71:6a:4f:48:9d:a5:70:0e:18:58:18:35:ae:88:29:
                    7d:5a:05:2a:c4:72:46:e0:52:a1:30:46:e1:75:2f:
                    31:7c:11:27:5b:59:1e:00:11:fa:d9:b7:82:49:f4:
                    9d:4b
                Exponent: 65537 (0x10001)
        X509v3 extensions:
            X509v3 Key Usage: 
                Digital Signature, Key Encipherment
            X509v3 Extended Key Usage: 
                TLS Web Client Authentication
            X509v3 Subject Key Identifier: 
                3D:28:87:85:A0:08:44:12:00:67:22:86:B8:27:54:81:21:3D:F2:86
            X509v3 Authority Key Identifier: 
                E8:68:58:65:10:3C:9E:71:A0:67:DC:D9:0E:B0:10:7F:2F:FB:76:54
    Signature Algorithm: sha256WithRSAEncryption
    Signature Value:
        9a:7d:a5:21:6d:e5:02:d0:e6:e4:75:80:f0:d8:a5:f1:13:25:
        6c:09:bb:3d:7a:e0:fd:81:a4:cb:51:de:2d:bc:e0:be:9c:e0:
        f6:b7:aa:36:87:ec:b5:7f:1b:41:a4:45:1d:d9:0d:b4:5c:17:
        50:d6:3b:36:a0:a6:e5:e0:94:b7:05:9b:e7:6c:fc:e6:3d:5e:
        64:c5:56:dc:e5:b3:82:d0:b7:f9:8e:37:93:11:1d:6a:9e:6b:
        d7:5a:7b:6c:d7:25:e5:69:53:0f:1d:32:7e:b8:84:73:b8:e7:
        b3:0a:8b:4f:e7:fe:a0:ae:8c:4e:cc:54:74:a8:5c:12:c3:4b:
        87:5a:33:2a:44:56:35:e6:df:31:c0:66:82:1e:2a:ae:5f:02:
        18:0c:87:a2:29:bf:34:61:73:5b:4a:46:e6:a8:7d:14:67:01:
        33:3c:49:07:3f:30:e6:1e:e8:7d:32:72:c6:76:82:f7:c3:b8:
        c1:b1:f3:6b:7b:01:97:dd:71:91:cd:be:89:73:3a:4d:12:1f:
        b8:45:6b:45:fe:91:56:62:3a:6f:49:54:60:ae:56:35:5f:65:
        c3:f5:cd:00:74:1d:ad:27:65:54:85:48:ad:1f:9a:ee:64:8e:
        65:96:bc:79:ef:19:08:9b:86:d3:96:7e:aa:6e:9d:ac:ed:16:
        05:a0:74:b1
-----BEGIN CERTIFICATE-----
MIIDnDCCAoSgAwIBAgIBBDANBgkqhkiG9w0BAQsFADBjMQswCQYDVQQGEwJGUjEX
MBUGA1UECAwOU2VpbmUtTWFyaXRpbWUxDzANBgNVBAoMBk0yX1NTSTESMBAGA1UE
CwwJVFBfQ3J5cHRvMRYwFAYDVQQDDA1EYW1iZSBMYW1ib25pMB4XDTI0MTIwODE3
NTAzOFoXDTI1MTIwODE3NTAzOFowWjELMAkGA1UEBhMCRlIxFzAVBgNVBAgMDlNl
aW5lLU1hcml0aW1lMQ8wDQYDVQQKDAZNMl9TU0kxITAfBgNVBAMMGG9wZW52cG4t
Y2xpZW50Lm0yc3NpX3RwNDCCASIwDQYJKoZIhvcNAQEBBQADggEPADCCAQoCggEB
AN7oRVeGyD/FkDQsJngG+PxgITiZtyKgjfgNx2WQ/Ri8YH1XiB/OB727oXKYaCG8
DMkHYO0UMN7XpWSiaqsbOUEKKnVHw4KuUoY/IEAd5i6bx8txGXIc2HGJGLlmrNY1
A7NWTaGHgidN9jIuJtDQcC9NZSQ3EwSkHoqGGlG+zxWxtMpZlxYfnUr+2TCpuzaQ
WctScig2lXyHYz+M6KrztGUyQTcXXVrbpF6sWqBowKbbGz3Mm4LwEFqs2WJXMhQJ
pvSB2UK9kP/700AbdvG67aZ/cWpPSJ2lcA4YWBg1rogpfVoFKsRyRuBSoTBG4XUv
MXwRJ1tZHgAR+tm3gkn0nUsCAwEAAaNkMGIwCwYDVR0PBAQDAgWgMBMGA1UdJQQM
MAoGCCsGAQUFBwMCMB0GA1UdDgQWBBQ9KIeFoAhEEgBnIoa4J1SBIT3yhjAfBgNV
HSMEGDAWgBToaFhlEDyecaBn3NkOsBB/L/t2VDANBgkqhkiG9w0BAQsFAAOCAQEA
mn2lIW3lAtDm5HWA8Nil8RMlbAm7PXrg/YGky1HeLbzgvpzg9reqNofstX8bQaRF
HdkNtFwXUNY7NqCm5eCUtwWb52z85j1eZMVW3OWzgtC3+Y43kxEdap5r11p7bNcl
5WlTDx0yfriEc7jnswqLT+f+oK6MTsxUdKhcEsNLh1ozKkRWNebfMcBmgh4qrl8C
GAyHoim/NGFzW0pG5qh9FGcBMzxJBz8w5h7ofTJyxnaC98O4wbHza3sBl91xkc2+
iXM6TRIfuEVrRf6RVmI6b0lUYK5WNV9lw/XNAHQdrSdlVIVIrR+a7mSOZZa8ee8Z
CJuG05Z+qm6drO0WBaB0sQ==
-----END CERTIFICATE-----
